(S'JPSfire'
p0
S'SOOT OPTICAL DENSITY'
p1
(S'Z'
p2
F1.75
tp3
I0
I120
I20
cnumpy.core.multiarray
_reconstruct
p4
(cnumpy
ndarray
p5
(I0
tp6
S'b'
p7
tp8
Rp9
(I1
(I1
tp10
cnumpy
dtype
p11
(S'f8'
p12
I0
I1
tp13
Rp14
(I3
S'<'
p15
NNNI-1
I-1
I0
tp16
bI00
S'\x00\x00\x00\x00\x00\x00\xf0?'
p17
tp18
btp19
.